; Function Attrs: nounwind uwtable
define ptr @l_Lean_RBNode_insert___at_Lean_Widget_ExprDiff_insertBeforeChange___spec__1___boxed(ptr noundef %0, ptr noundef %1, ptr noundef %2) local_unnamed_addr #0 {
  %4 = ptrtoint ptr %2 to i64
  %5 = lshr i64 %4, 1
  %6 = trunc i64 %5 to i8
  %7 = and i64 %4, 1
  %.not = icmp eq i64 %7, 0
  br i1 %.not, label %8, label %lean_dec.exit

8:                                                ; preds = %3
  %9 = load i32, ptr %2, align 4, !tbaa !8
  %10 = icmp sgt i32 %9, 1
  br i1 %10, label %11, label %13, !prof !11

11:                                               ; preds = %8
  %12 = add nsw i32 %9, -1
  store i32 %12, ptr %2, align 4, !tbaa !8
  br label %lean_dec.exit

13:                                               ; preds = %8
  %.not.i = icmp eq i32 %9, 0
  br i1 %.not.i, label %lean_dec.exit, label %14

14:                                               ; preds = %13
  tail call void @lean_dec_ref_cold(ptr noundef nonnull %2) #7
  br label %lean_dec.exit

lean_dec.exit:                                    ; preds = %14, %13, %11, %3
  %15 = tail call zeroext i8 @l_Lean_RBNode_isRed___rarg(ptr noundef %0) #7
  %16 = icmp eq i8 %15, 0
  %17 = tail call ptr @l_Lean_RBNode_ins___at_Lean_Widget_ExprDiff_insertBeforeChange___spec__2(ptr noundef %0, ptr noundef %1, i8 noundef zeroext %6)
  br i1 %16, label %l_Lean_RBNode_insert___at_Lean_Widget_ExprDiff_insertBeforeChange___spec__1.exit, label %18

18:                                               ; preds = %lean_dec.exit
  %19 = tail call ptr @l_Lean_RBNode_setBlack___rarg(ptr noundef %17) #7
  br label %l_Lean_RBNode_insert___at_Lean_Widget_ExprDiff_insertBeforeChange___spec__1.exit

l_Lean_RBNode_insert___at_Lean_Widget_ExprDiff_insertBeforeChange___spec__1.exit: ; preds = %lean_dec.exit, %18
  %.0.i = phi ptr [ %19, %18 ], [ %17, %lean_dec.exit ]
  ret ptr %.0.i
}